target datalayout = "e-m:e-p270:32:32-p271:32:32-p272:64:64-i64:64-i128:128-f80:128-n8:16:32:64-S128"
target triple = "x86_64-pc-linux-gnu"

%struct.load_arg = type { i64, ptr, i64, i64, i64, ptr, ptr, ptr, i64, ptr, i8 }

; Function Attrs: nounwind sspstrong uwtable
define internal void @clear_load_arg(ptr noundef %0) #0 {
  %2 = alloca ptr, align 8
  store ptr %0, ptr %2, align 8, !tbaa !33
  %3 = load ptr, ptr %2, align 8, !tbaa !33
  %4 = getelementptr inbounds nuw %struct.load_arg, ptr %3, i32 0, i32 1
  %5 = load ptr, ptr %4, align 8, !tbaa !60
  call void @ruby_xfree(ptr noundef %5)
  %6 = load ptr, ptr %2, align 8, !tbaa !33
  %7 = getelementptr inbounds nuw %struct.load_arg, ptr %6, i32 0, i32 1
  store ptr null, ptr %7, align 8, !tbaa !60
  %8 = load ptr, ptr %2, align 8, !tbaa !33
  %9 = getelementptr inbounds nuw %struct.load_arg, ptr %8, i32 0, i32 2
  store i64 0, ptr %9, align 8, !tbaa !62
  %10 = load ptr, ptr %2, align 8, !tbaa !33
  %11 = getelementptr inbounds nuw %struct.load_arg, ptr %10, i32 0, i32 4
  store i64 0, ptr %11, align 8, !tbaa !32
  %12 = load ptr, ptr %2, align 8, !tbaa !33
  %13 = getelementptr inbounds nuw %struct.load_arg, ptr %12, i32 0, i32 3
  store i64 0, ptr %13, align 8, !tbaa !56
  %14 = load ptr, ptr %2, align 8, !tbaa !33
  %15 = getelementptr inbounds nuw %struct.load_arg, ptr %14, i32 0, i32 5
  %16 = load ptr, ptr %15, align 8, !tbaa !51
  %17 = icmp ne ptr %16, null
  br i1 %17, label %19, label %18

18:                                               ; preds = %1
  br label %45

19:                                               ; preds = %1
  %20 = load ptr, ptr %2, align 8, !tbaa !33
  %21 = getelementptr inbounds nuw %struct.load_arg, ptr %20, i32 0, i32 5
  %22 = load ptr, ptr %21, align 8, !tbaa !51
  call void @rb_st_free_table(ptr noundef %22)
  %23 = load ptr, ptr %2, align 8, !tbaa !33
  %24 = getelementptr inbounds nuw %struct.load_arg, ptr %23, i32 0, i32 5
  store ptr null, ptr %24, align 8, !tbaa !51
  %25 = load ptr, ptr %2, align 8, !tbaa !33
  %26 = getelementptr inbounds nuw %struct.load_arg, ptr %25, i32 0, i32 6
  %27 = load ptr, ptr %26, align 8, !tbaa !52
  call void @rb_st_free_table(ptr noundef %27)
  %28 = load ptr, ptr %2, align 8, !tbaa !33
  %29 = getelementptr inbounds nuw %struct.load_arg, ptr %28, i32 0, i32 6
  store ptr null, ptr %29, align 8, !tbaa !52
  %30 = load ptr, ptr %2, align 8, !tbaa !33
  %31 = getelementptr inbounds nuw %struct.load_arg, ptr %30, i32 0, i32 7
  %32 = load ptr, ptr %31, align 8, !tbaa !53
  call void @rb_st_free_table(ptr noundef %32)
  %33 = load ptr, ptr %2, align 8, !tbaa !33
  %34 = getelementptr inbounds nuw %struct.load_arg, ptr %33, i32 0, i32 7
  store ptr null, ptr %34, align 8, !tbaa !53
  %35 = load ptr, ptr %2, align 8, !tbaa !33
  %36 = getelementptr inbounds nuw %struct.load_arg, ptr %35, i32 0, i32 9
  %37 = load ptr, ptr %36, align 8, !tbaa !54
  %38 = icmp ne ptr %37, null
  br i1 %38, label %39, label %45

39:                                               ; preds = %19
  %40 = load ptr, ptr %2, align 8, !tbaa !33
  %41 = getelementptr inbounds nuw %struct.load_arg, ptr %40, i32 0, i32 9
  %42 = load ptr, ptr %41, align 8, !tbaa !54
  call void @rb_st_free_table(ptr noundef %42)
  %43 = load ptr, ptr %2, align 8, !tbaa !33
  %44 = getelementptr inbounds nuw %struct.load_arg, ptr %43, i32 0, i32 9
  store ptr null, ptr %44, align 8, !tbaa !54
  br label %45

45:                                               ; preds = %18, %39, %19
  ret void
}