; Function Attrs: nounwind sspstrong uwtable
define internal fastcc void @clear_load_arg(ptr noundef captures(none) initializes((16, 40)) %0) unnamed_addr #0 {
  %2 = getelementptr inbounds nuw i8, ptr %0, i64 8
  %3 = load ptr, ptr %2, align 8, !tbaa !52
  tail call void @ruby_xfree(ptr noundef %3) #22
  %4 = getelementptr inbounds nuw i8, ptr %0, i64 40
  tail call void @llvm.memset.p0.i64(ptr noundef nonnull align 8 dereferenceable(32) %2, i8 0, i64 32, i1 false)
  %5 = load ptr, ptr %4, align 8, !tbaa !47
  %.not = icmp eq ptr %5, null
  br i1 %.not, label %14, label %6

6:                                                ; preds = %1
  tail call void @rb_st_free_table(ptr noundef nonnull %5) #22
  store ptr null, ptr %4, align 8, !tbaa !47
  %7 = getelementptr inbounds nuw i8, ptr %0, i64 48
  %8 = load ptr, ptr %7, align 8, !tbaa !48
  tail call void @rb_st_free_table(ptr noundef %8) #22
  store ptr null, ptr %7, align 8, !tbaa !48
  %9 = getelementptr inbounds nuw i8, ptr %0, i64 56
  %10 = load ptr, ptr %9, align 8, !tbaa !49
  tail call void @rb_st_free_table(ptr noundef %10) #22
  store ptr null, ptr %9, align 8, !tbaa !49
  %11 = getelementptr inbounds nuw i8, ptr %0, i64 72
  %12 = load ptr, ptr %11, align 8, !tbaa !54
  %.not16 = icmp eq ptr %12, null
  br i1 %.not16, label %14, label %13

13:                                               ; preds = %6
  tail call void @rb_st_free_table(ptr noundef nonnull %12) #22
  store ptr null, ptr %11, align 8, !tbaa !54
  br label %14

14:                                               ; preds = %1, %13, %6
  ret void
}